; Function Attrs: mustprogress nounwind uwtable
define hidden void @_ZN25InterpreterMacroAssembler3popE8TosState(ptr noundef nonnull align 8 dereferenceable(48) %0, i32 noundef %1) local_unnamed_addr #0 align 2 {
  %3 = alloca %class.Address, align 8
  %4 = alloca %class.Address, align 8
  %5 = alloca %class.Address, align 16
  %6 = alloca %class.Address, align 16
  %7 = alloca %class.Address, align 16
  switch i32 %1, label %34 [
    i32 8, label %8
    i32 0, label %9
    i32 1, label %9
    i32 2, label %9
    i32 3, label %9
    i32 4, label %9
    i32 5, label %15
    i32 6, label %21
    i32 7, label %33
    i32 9, label %36
  ]

8:                                                ; preds = %2
  tail call void @_ZN9Assembler3popE8Register(ptr noundef nonnull align 8 dereferenceable(40) %0, i32 0) #8
  br label %36

9:                                                ; preds = %2, %2, %2, %2, %2
  call void @llvm.lifetime.start.p0(i64 64, ptr nonnull %7)
  store <4 x i32> <i32 4, i32 -1, i32 -1, i32 -1>, ptr %7, align 16
  %10 = getelementptr inbounds i8, ptr %7, i64 16
  store i32 0, ptr %10, align 16
  %11 = getelementptr inbounds i8, ptr %7, i64 20
  store i8 0, ptr %11, align 4
  %12 = getelementptr inbounds i8, ptr %7, i64 24
  store ptr getelementptr inbounds inrange(-16, 72) (i8, ptr @_ZTV10Relocation, i64 16), ptr %12, align 8
  %13 = getelementptr inbounds i8, ptr %7, i64 32
  store ptr null, ptr %13, align 16
  %14 = getelementptr inbounds i8, ptr %7, i64 40
  store i32 0, ptr %14, align 8
  call void @_ZN9Assembler4movlE8Register7Address(ptr noundef nonnull align 8 dereferenceable(40) %0, i32 0, ptr noundef nonnull %7) #8
  call void @_ZN14MacroAssembler6addptrE8Registeri(ptr noundef nonnull align 8 dereferenceable(40) %0, i32 4, i32 noundef 8) #8
  call void @llvm.lifetime.end.p0(i64 64, ptr nonnull %7)
  br label %36

15:                                               ; preds = %2
  call void @llvm.lifetime.start.p0(i64 64, ptr nonnull %6)
  store <4 x i32> <i32 4, i32 -1, i32 -1, i32 -1>, ptr %6, align 16
  %16 = getelementptr inbounds i8, ptr %6, i64 16
  store i32 0, ptr %16, align 16
  %17 = getelementptr inbounds i8, ptr %6, i64 20
  store i8 0, ptr %17, align 4
  %18 = getelementptr inbounds i8, ptr %6, i64 24
  store ptr getelementptr inbounds inrange(-16, 72) (i8, ptr @_ZTV10Relocation, i64 16), ptr %18, align 8
  %19 = getelementptr inbounds i8, ptr %6, i64 32
  store ptr null, ptr %19, align 16
  %20 = getelementptr inbounds i8, ptr %6, i64 40
  store i32 0, ptr %20, align 8
  call void @_ZN9Assembler4movqE8Register7Address(ptr noundef nonnull align 8 dereferenceable(40) %0, i32 0, ptr noundef nonnull %6) #8
  call void @_ZN14MacroAssembler6addptrE8Registeri(ptr noundef nonnull align 8 dereferenceable(40) %0, i32 4, i32 noundef 16) #8
  call void @llvm.lifetime.end.p0(i64 64, ptr nonnull %6)
  br label %36

21:                                               ; preds = %2
  call void @llvm.lifetime.start.p0(i64 64, ptr nonnull %5)
  store <4 x i32> <i32 4, i32 -1, i32 -1, i32 -1>, ptr %5, align 16
  %22 = getelementptr inbounds i8, ptr %5, i64 16
  store i32 0, ptr %22, align 16
  %23 = getelementptr inbounds i8, ptr %5, i64 20
  store i8 0, ptr %23, align 4
  %24 = getelementptr inbounds i8, ptr %5, i64 24
  store ptr getelementptr inbounds inrange(-16, 72) (i8, ptr @_ZTV10Relocation, i64 16), ptr %24, align 8
  %25 = getelementptr inbounds i8, ptr %5, i64 32
  store ptr null, ptr %25, align 16
  %26 = getelementptr inbounds i8, ptr %5, i64 40
  store i32 0, ptr %26, align 8
  call void @llvm.lifetime.start.p0(i64 64, ptr nonnull %4)
  call void @llvm.memcpy.p0.p0.i64(ptr noundef nonnull align 8 dereferenceable(21) %4, ptr noundef nonnull align 16 dereferenceable(21) %5, i64 21, i1 false)
  %27 = getelementptr inbounds i8, ptr %4, i64 24
  %28 = load ptr, ptr getelementptr inbounds inrange(-32, 56) (i8, ptr @_ZTV10Relocation, i64 32), align 8
  call void %28(ptr noundef nonnull align 8 dereferenceable(20) %24, ptr noundef nonnull align 8 dereferenceable(40) %27) #8
  call void @llvm.lifetime.start.p0(i64 64, ptr nonnull %3)
  call void @llvm.memcpy.p0.p0.i64(ptr noundef nonnull align 8 dereferenceable(21) %3, ptr noundef nonnull align 8 dereferenceable(21) %4, i64 21, i1 false)
  %29 = getelementptr inbounds i8, ptr %3, i64 24
  %30 = load ptr, ptr %27, align 8
  %31 = getelementptr inbounds i8, ptr %30, i64 16
  %32 = load ptr, ptr %31, align 8
  call void %32(ptr noundef nonnull align 8 dereferenceable(20) %27, ptr noundef nonnull align 8 dereferenceable(40) %29) #8
  call void @_ZN9Assembler5movssE11XMMRegister7Address(ptr noundef nonnull align 8 dereferenceable(40) %0, i32 0, ptr noundef nonnull %3) #8
  call void @llvm.lifetime.end.p0(i64 64, ptr nonnull %3)
  call void @llvm.lifetime.end.p0(i64 64, ptr nonnull %4)
  call void @_ZN14MacroAssembler6addptrE8Registeri(ptr noundef nonnull align 8 dereferenceable(40) %0, i32 4, i32 noundef 8) #8
  call void @llvm.lifetime.end.p0(i64 64, ptr nonnull %5)
  br label %36

33:                                               ; preds = %2
  tail call void @_ZN25InterpreterMacroAssembler5pop_dE11XMMRegister(ptr noundef nonnull align 8 dereferenceable(48) %0, i32 0)
  br label %36

34:                                               ; preds = %2
  %35 = load ptr, ptr @g_assert_poison, align 8
  store i8 88, ptr %35, align 1
  tail call void @_Z28report_should_not_reach_herePKci(ptr noundef nonnull @.str, i32 noundef 611) #9
  unreachable

36:                                               ; preds = %2, %33, %21, %15, %9, %8
  ret void
}